; Function Attrs: nounwind uwtable
define internal ptr @unicode_decodeutf32stateful(ptr readnone captures(none) %0, ptr noundef %1) #0 {
  %3 = alloca ptr, align 8
  %4 = alloca i64, align 8
  %5 = alloca ptr, align 8
  %6 = alloca i32, align 4
  %7 = alloca i64, align 8
  call void @llvm.lifetime.start.p0(i64 8, ptr nonnull %3) #4
  call void @llvm.lifetime.start.p0(i64 8, ptr nonnull %4) #4
  call void @llvm.lifetime.start.p0(i64 8, ptr nonnull %5) #4
  store ptr null, ptr %5, align 8, !tbaa !3
  call void @llvm.lifetime.start.p0(i64 4, ptr nonnull %6) #4
  store i32 63256717, ptr %6, align 4, !tbaa !12
  call void @llvm.lifetime.start.p0(i64 8, ptr nonnull %7) #4
  store i64 236892191, ptr %7, align 8, !tbaa !10
  %8 = call i32 (ptr, ptr, ...) @PyArg_ParseTuple(ptr noundef %1, ptr noundef nonnull @.str.380, ptr noundef nonnull %6, ptr noundef nonnull %3, ptr noundef nonnull %4, ptr noundef nonnull %5) #4
  %.not = icmp eq i32 %8, 0
  br i1 %.not, label %22, label %9

9:                                                ; preds = %2
  %10 = load ptr, ptr %3, align 8, !tbaa !3
  %11 = load i64, ptr %4, align 8, !tbaa !10
  %12 = load ptr, ptr %5, align 8, !tbaa !3
  %13 = call ptr @PyUnicode_DecodeUTF32Stateful(ptr noundef %10, i64 noundef %11, ptr noundef %12, ptr noundef nonnull %6, ptr noundef nonnull %7) #4
  %.not5 = icmp eq ptr %13, null
  br i1 %.not5, label %14, label %18

14:                                               ; preds = %9
  %15 = load i64, ptr %7, align 8, !tbaa !10
  %16 = icmp eq i64 %15, 236892191
  br i1 %16, label %22, label %17

17:                                               ; preds = %14
  call void @__assert_fail(ptr noundef nonnull @.str.379, ptr noundef nonnull @.str.360, i32 noundef 693, ptr noundef nonnull @__PRETTY_FUNCTION__.unicode_decodeutf32stateful) #5
  unreachable

18:                                               ; preds = %9
  %19 = load i32, ptr %6, align 4, !tbaa !12
  %20 = load i64, ptr %7, align 8, !tbaa !10
  %21 = call ptr (ptr, ...) @Py_BuildValue(ptr noundef nonnull @.str.382, i32 noundef %19, ptr noundef nonnull %13, i64 noundef %20) #4
  br label %22

22:                                               ; preds = %14, %2, %18
  %.0 = phi ptr [ %21, %18 ], [ null, %2 ], [ null, %14 ]
  call void @llvm.lifetime.end.p0(i64 8, ptr nonnull %7) #4
  call void @llvm.lifetime.end.p0(i64 4, ptr nonnull %6) #4
  call void @llvm.lifetime.end.p0(i64 8, ptr nonnull %5) #4
  call void @llvm.lifetime.end.p0(i64 8, ptr nonnull %4) #4
  call void @llvm.lifetime.end.p0(i64 8, ptr nonnull %3) #4
  ret ptr %.0
}